; Function Attrs: nounwind uwtable
define hidden void @_glfwCreateInputContextX11(ptr noundef %0) local_unnamed_addr #0 {
  %2 = alloca %struct.XIMCallback, align 8
  %3 = alloca %struct.XWindowAttributes, align 8
  %4 = alloca i64, align 8
  call void @llvm.lifetime.start.p0(i64 16, ptr nonnull %2) #17
  %5 = getelementptr inbounds nuw i8, ptr %2, i64 8
  store ptr @inputContextDestroyCallback, ptr %5, align 8, !tbaa !135
  store ptr %0, ptr %2, align 8, !tbaa !137
  %6 = load ptr, ptr getelementptr inbounds nuw (i8, ptr @_glfw, i64 141440), align 8, !tbaa !138
  %7 = load ptr, ptr getelementptr inbounds nuw (i8, ptr @_glfw, i64 137896), align 8, !tbaa !139
  %8 = getelementptr inbounds nuw i8, ptr %0, i64 1248
  %9 = load i64, ptr %8, align 8, !tbaa !140
  %10 = call ptr (ptr, ...) %6(ptr noundef %7, ptr noundef nonnull @.str, i64 noundef 1032, ptr noundef nonnull @.str.1, i64 noundef %9, ptr noundef nonnull @.str.2, i64 noundef %9, ptr noundef nonnull @.str.3, ptr noundef nonnull %2, ptr noundef null) #17
  %11 = getelementptr inbounds nuw i8, ptr %0, i64 1264
  store ptr %10, ptr %11, align 8, !tbaa !174
  %.not = icmp eq ptr %10, null
  br i1 %.not, label %31, label %12

12:                                               ; preds = %1
  call void @llvm.lifetime.start.p0(i64 136, ptr nonnull %3) #17
  %13 = load ptr, ptr getelementptr inbounds nuw (i8, ptr @_glfw, i64 141664), align 8, !tbaa !175
  %14 = load ptr, ptr getelementptr inbounds nuw (i8, ptr @_glfw, i64 137840), align 8, !tbaa !93
  %15 = load i64, ptr %8, align 8, !tbaa !140
  %16 = call i32 %13(ptr noundef %14, i64 noundef %15, ptr noundef nonnull %3) #17
  call void @llvm.lifetime.start.p0(i64 8, ptr nonnull %4) #17
  store i64 0, ptr %4, align 8, !tbaa !94
  %17 = load ptr, ptr getelementptr inbounds nuw (i8, ptr @_glfw, i64 141600), align 8, !tbaa !176
  %18 = load ptr, ptr %11, align 8, !tbaa !174
  %19 = call ptr (ptr, ...) %17(ptr noundef %18, ptr noundef nonnull @.str.4, ptr noundef nonnull %4, ptr noundef null) #17
  %20 = icmp eq ptr %19, null
  br i1 %20, label %21, label %30

21:                                               ; preds = %12
  %22 = load ptr, ptr getelementptr inbounds nuw (i8, ptr @_glfw, i64 141832), align 8, !tbaa !177
  %23 = load ptr, ptr getelementptr inbounds nuw (i8, ptr @_glfw, i64 137840), align 8, !tbaa !93
  %24 = load i64, ptr %8, align 8, !tbaa !140
  %25 = getelementptr inbounds nuw i8, ptr %3, i64 104
  %26 = load i64, ptr %25, align 8, !tbaa !178
  %27 = load i64, ptr %4, align 8, !tbaa !94
  %28 = or i64 %27, %26
  %29 = call i32 %22(ptr noundef %23, i64 noundef %24, i64 noundef %28) #17
  br label %30

30:                                               ; preds = %21, %12
  call void @llvm.lifetime.end.p0(i64 8, ptr nonnull %4) #17
  call void @llvm.lifetime.end.p0(i64 136, ptr nonnull %3) #17
  br label %31

31:                                               ; preds = %30, %1
  call void @llvm.lifetime.end.p0(i64 16, ptr nonnull %2) #17
  ret void
}